target datalayout = "e-m:e-p270:32:32-p271:32:32-p272:64:64-i64:64-i128:128-f80:128-n8:16:32:64-S128"
target triple = "x86_64-pc-linux-gnu"

%struct.cli_events = type { ptr, %struct.cli_event, i64, i32, i32 }
%struct.cli_event = type { ptr, %union.ev_val, i32, i16 }
%union.ev_val = type { ptr }

@.str.1 = private unnamed_addr constant [43 x i8] c"events: out of memory allocating %u bytes\0A\00", align 1
@.str.8 = private unnamed_addr constant [12 x i8] c"events: %s\0A\00", align 1
@.str.12 = private unnamed_addr constant [20 x i8] c"%s: ev_chain %u %s\0A\00", align 1
@.str.13 = private unnamed_addr constant [8 x i8] c"%s: %s\0A\00", align 1
@.str.18 = private unnamed_addr constant [22 x i8] c"event id out of range\00", align 1
@.str.19 = private unnamed_addr constant [1 x i8] zeroinitializer, align 1
@.str.20 = private unnamed_addr constant [10 x i8] c"ev_string\00", align 1
@.str.21 = private unnamed_addr constant [8 x i8] c"ev_data\00", align 1
@.str.22 = private unnamed_addr constant [13 x i8] c"ev_data_fast\00", align 1
@.str.23 = private unnamed_addr constant [12 x i8] c"ev_data_int\00", align 1
@.str.24 = private unnamed_addr constant [8 x i8] c"ev_time\00", align 1

; Function Attrs: nounwind uwtable
define void @cli_event_error_oom(ptr noundef %0, i32 noundef %1) #0 {
  %3 = alloca ptr, align 8
  %4 = alloca i32, align 4
  store ptr %0, ptr %3, align 8, !tbaa !7
  store i32 %1, ptr %4, align 4, !tbaa !3
  %5 = load ptr, ptr %3, align 8, !tbaa !7
  %6 = icmp ne ptr %5, null
  br i1 %6, label %8, label %7

7:                                                ; preds = %2
  br label %23

8:                                                ; preds = %2
  %9 = load i32, ptr %4, align 4, !tbaa !3
  %10 = zext i32 %9 to i64
  %11 = load ptr, ptr %3, align 8, !tbaa !7
  %12 = getelementptr inbounds nuw %struct.cli_events, ptr %11, i32 0, i32 2
  %13 = load i64, ptr %12, align 8, !tbaa !18
  %14 = add i64 %13, %10
  store i64 %14, ptr %12, align 8, !tbaa !18
  %15 = load ptr, ptr %3, align 8, !tbaa !7
  %16 = getelementptr inbounds nuw %struct.cli_events, ptr %15, i32 0, i32 4
  %17 = load i32, ptr %16, align 4, !tbaa !19
  %18 = add i32 %17, 1
  store i32 %18, ptr %16, align 4, !tbaa !19
  %19 = load i32, ptr %4, align 4, !tbaa !3
  %20 = icmp ne i32 %19, 0
  br i1 %20, label %21, label %23

21:                                               ; preds = %8
  %22 = load i32, ptr %4, align 4, !tbaa !3
  call void (ptr, ...) @cli_errmsg(ptr noundef @.str.1, i32 noundef %22)
  br label %23

23:                                               ; preds = %7, %21, %8
  ret void
}

; Function Attrs: inlinehint nounwind uwtable
define internal void @ev_chain(ptr noundef %0, ptr noundef %1, ptr noundef %2) #5 {
  %4 = alloca ptr, align 8
  %5 = alloca ptr, align 8
  %6 = alloca ptr, align 8
  %7 = alloca ptr, align 8
  %8 = alloca i32, align 4
  %9 = alloca i32, align 4
  store ptr %0, ptr %4, align 8, !tbaa !7
  store ptr %1, ptr %5, align 8, !tbaa !21
  store ptr %2, ptr %6, align 8, !tbaa !26
  call void @llvm.lifetime.start.p0(i64 8, ptr %7) #8
  call void @llvm.lifetime.start.p0(i64 4, ptr %8) #8
  %10 = load ptr, ptr %5, align 8, !tbaa !21
  %11 = getelementptr inbounds nuw %struct.cli_event, ptr %10, i32 0, i32 2
  %12 = load i32, ptr %11, align 8, !tbaa !25
  %13 = add i32 %12, 1
  %14 = zext i32 %13 to i64
  %15 = mul i64 8, %14
  %16 = trunc i64 %15 to i32
  store i32 %16, ptr %8, align 4, !tbaa !3
  %17 = load ptr, ptr %5, align 8, !tbaa !21
  %18 = getelementptr inbounds nuw %struct.cli_event, ptr %17, i32 0, i32 1
  %19 = load ptr, ptr %18, align 8, !tbaa !23
  %20 = load i32, ptr %8, align 4, !tbaa !3
  %21 = zext i32 %20 to i64
  %22 = call ptr @cli_safer_realloc(ptr noundef %19, i64 noundef %21)
  store ptr %22, ptr %7, align 8, !tbaa !26
  %23 = load ptr, ptr %7, align 8, !tbaa !26
  %24 = icmp ne ptr %23, null
  br i1 %24, label %28, label %25

25:                                               ; preds = %3
  %26 = load ptr, ptr %4, align 8, !tbaa !7
  %27 = load i32, ptr %8, align 4, !tbaa !3
  call void @cli_event_error_oom(ptr noundef %26, i32 noundef %27)
  store i32 1, ptr %9, align 4
  br label %45

28:                                               ; preds = %3
  %29 = load ptr, ptr %7, align 8, !tbaa !26
  %30 = load ptr, ptr %5, align 8, !tbaa !21
  %31 = getelementptr inbounds nuw %struct.cli_event, ptr %30, i32 0, i32 1
  store ptr %29, ptr %31, align 8, !tbaa !23
  %32 = load ptr, ptr %5, align 8, !tbaa !21
  %33 = getelementptr inbounds nuw %struct.cli_event, ptr %32, i32 0, i32 1
  %34 = load ptr, ptr %33, align 8, !tbaa !23
  %35 = load ptr, ptr %5, align 8, !tbaa !21
  %36 = getelementptr inbounds nuw %struct.cli_event, ptr %35, i32 0, i32 2
  %37 = load i32, ptr %36, align 8, !tbaa !25
  %38 = zext i32 %37 to i64
  %39 = getelementptr inbounds nuw %union.ev_val, ptr %34, i64 %38
  %40 = load ptr, ptr %6, align 8, !tbaa !26
  call void @llvm.memcpy.p0.p0.i64(ptr align 8 %39, ptr align 8 %40, i64 8, i1 false), !tbaa.struct !28
  %41 = load ptr, ptr %5, align 8, !tbaa !21
  %42 = getelementptr inbounds nuw %struct.cli_event, ptr %41, i32 0, i32 2
  %43 = load i32, ptr %42, align 8, !tbaa !25
  %44 = add i32 %43, 1
  store i32 %44, ptr %42, align 8, !tbaa !25
  store i32 0, ptr %9, align 4
  br label %45

45:                                               ; preds = %28, %25
  call void @llvm.lifetime.end.p0(i64 4, ptr %8) #8
  call void @llvm.lifetime.end.p0(i64 8, ptr %7) #8
  %46 = load i32, ptr %9, align 4
  switch i32 %46, label %48 [
    i32 0, label %47
    i32 1, label %47
  ]

47:                                               ; preds = %45, %45
  ret void

48:                                               ; preds = %45
  unreachable
}

; Function Attrs: nounwind uwtable
define internal void @event_string(ptr noundef %0, ptr noundef %1, ptr noundef %2) #0 {
  %4 = alloca ptr, align 8
  %5 = alloca ptr, align 8
  %6 = alloca ptr, align 8
  %7 = alloca %union.ev_val, align 8
  store ptr %0, ptr %4, align 8, !tbaa !7
  store ptr %1, ptr %5, align 8, !tbaa !21
  store ptr %2, ptr %6, align 8, !tbaa !20
  %8 = load ptr, ptr %6, align 8, !tbaa !20
  %9 = icmp ne ptr %8, null
  br i1 %9, label %11, label %10

10:                                               ; preds = %3
  store ptr @.str.19, ptr %6, align 8, !tbaa !20
  br label %11

11:                                               ; preds = %10, %3
  %12 = load ptr, ptr %5, align 8, !tbaa !21
  %13 = getelementptr inbounds nuw %struct.cli_event, ptr %12, i32 0, i32 3
  %14 = load i16, ptr %13, align 4
  %15 = lshr i16 %14, 8
  %16 = zext i16 %15 to i32
  switch i32 %16, label %29 [
    i32 0, label %17
    i32 1, label %25
  ]

17:                                               ; preds = %11
  %18 = load ptr, ptr %6, align 8, !tbaa !20
  %19 = load ptr, ptr %5, align 8, !tbaa !21
  %20 = getelementptr inbounds nuw %struct.cli_event, ptr %19, i32 0, i32 1
  store ptr %18, ptr %20, align 8, !tbaa !23
  %21 = load ptr, ptr %5, align 8, !tbaa !21
  %22 = getelementptr inbounds nuw %struct.cli_event, ptr %21, i32 0, i32 2
  %23 = load i32, ptr %22, align 8, !tbaa !25
  %24 = add i32 %23, 1
  store i32 %24, ptr %22, align 8, !tbaa !25
  br label %30

25:                                               ; preds = %11
  call void @llvm.lifetime.start.p0(i64 8, ptr %7) #8
  %26 = load ptr, ptr %6, align 8, !tbaa !20
  store ptr %26, ptr %7, align 8, !tbaa !23
  %27 = load ptr, ptr %4, align 8, !tbaa !7
  %28 = load ptr, ptr %5, align 8, !tbaa !21
  call void @ev_chain(ptr noundef %27, ptr noundef %28, ptr noundef %7)
  call void @llvm.lifetime.end.p0(i64 8, ptr %7) #8
  br label %30

29:                                               ; preds = %11
  br label %30

30:                                               ; preds = %29, %25, %17
  ret void
}

; Function Attrs: nounwind uwtable
define void @cli_event_error_str(ptr noundef %0, ptr noundef %1) #0 {
  %3 = alloca ptr, align 8
  %4 = alloca ptr, align 8
  store ptr %0, ptr %3, align 8, !tbaa !7
  store ptr %1, ptr %4, align 8, !tbaa !20
  %5 = load ptr, ptr %3, align 8, !tbaa !7
  %6 = icmp ne ptr %5, null
  br i1 %6, label %8, label %7

7:                                                ; preds = %2
  br label %14

8:                                                ; preds = %2
  %9 = load ptr, ptr %4, align 8, !tbaa !20
  call void (ptr, ...) @cli_warnmsg(ptr noundef @.str.8, ptr noundef %9)
  %10 = load ptr, ptr %3, align 8, !tbaa !7
  %11 = load ptr, ptr %3, align 8, !tbaa !7
  %12 = getelementptr inbounds nuw %struct.cli_events, ptr %11, i32 0, i32 1
  %13 = load ptr, ptr %4, align 8, !tbaa !20
  call void @event_string(ptr noundef %10, ptr noundef %12, ptr noundef %13)
  br label %14

14:                                               ; preds = %8, %7
  ret void
}

; Function Attrs: inlinehint nounwind uwtable
define internal ptr @evtype(i32 noundef %0) #5 {
  %2 = alloca ptr, align 8
  %3 = alloca i32, align 4
  store i32 %0, ptr %3, align 4, !tbaa !3
  %4 = load i32, ptr %3, align 4, !tbaa !3
  switch i32 %4, label %10 [
    i32 1, label %5
    i32 2, label %6
    i32 3, label %7
    i32 4, label %8
    i32 5, label %9
  ]

5:                                                ; preds = %1
  store ptr @.str.20, ptr %2, align 8
  br label %11

6:                                                ; preds = %1
  store ptr @.str.21, ptr %2, align 8
  br label %11

7:                                                ; preds = %1
  store ptr @.str.22, ptr %2, align 8
  br label %11

8:                                                ; preds = %1
  store ptr @.str.23, ptr %2, align 8
  br label %11

9:                                                ; preds = %1
  store ptr @.str.24, ptr %2, align 8
  br label %11

10:                                               ; preds = %1
  store ptr @.str.19, ptr %2, align 8
  br label %11

11:                                               ; preds = %10, %9, %8, %7, %6, %5
  %12 = load ptr, ptr %2, align 8
  ret ptr %12
}

; Function Attrs: inlinehint nounwind uwtable
define internal ptr @get_event(ptr noundef %0, i32 noundef %1) #5 {
  %3 = alloca ptr, align 8
  %4 = alloca ptr, align 8
  %5 = alloca i32, align 4
  store ptr %0, ptr %4, align 8, !tbaa !7
  store i32 %1, ptr %5, align 4, !tbaa !3
  %6 = load ptr, ptr %4, align 8, !tbaa !7
  %7 = icmp ne ptr %6, null
  br i1 %7, label %9, label %8

8:                                                ; preds = %2
  store ptr null, ptr %3, align 8
  br label %24

9:                                                ; preds = %2
  %10 = load i32, ptr %5, align 4, !tbaa !3
  %11 = load ptr, ptr %4, align 8, !tbaa !7
  %12 = getelementptr inbounds nuw %struct.cli_events, ptr %11, i32 0, i32 3
  %13 = load i32, ptr %12, align 8, !tbaa !10
  %14 = icmp uge i32 %10, %13
  br i1 %14, label %15, label %17

15:                                               ; preds = %9
  %16 = load ptr, ptr %4, align 8, !tbaa !7
  call void @cli_event_error_str(ptr noundef %16, ptr noundef @.str.18)
  store ptr null, ptr %3, align 8
  br label %24

17:                                               ; preds = %9
  %18 = load ptr, ptr %4, align 8, !tbaa !7
  %19 = getelementptr inbounds nuw %struct.cli_events, ptr %18, i32 0, i32 0
  %20 = load ptr, ptr %19, align 8, !tbaa !16
  %21 = load i32, ptr %5, align 4, !tbaa !3
  %22 = zext i32 %21 to i64
  %23 = getelementptr inbounds nuw %struct.cli_event, ptr %20, i64 %22
  store ptr %23, ptr %3, align 8
  br label %24

24:                                               ; preds = %17, %15, %8
  %25 = load ptr, ptr %3, align 8
  ret ptr %25
}

; Function Attrs: nounwind uwtable
define void @cli_event_debug(ptr noundef %0, i32 noundef %1) #0 {
  %3 = alloca ptr, align 8
  %4 = alloca i32, align 4
  %5 = alloca ptr, align 8
  %6 = alloca ptr, align 8
  %7 = alloca i32, align 4
  %8 = alloca i32, align 4
  store ptr %0, ptr %3, align 8, !tbaa !7
  store i32 %1, ptr %4, align 4, !tbaa !3
  call void @llvm.lifetime.start.p0(i64 8, ptr %5) #8
  call void @llvm.lifetime.start.p0(i64 8, ptr %6) #8
  %9 = load ptr, ptr %3, align 8, !tbaa !7
  %10 = load i32, ptr %4, align 4, !tbaa !3
  %11 = call ptr @get_event(ptr noundef %9, i32 noundef %10)
  store ptr %11, ptr %6, align 8, !tbaa !21
  %12 = load ptr, ptr %6, align 8, !tbaa !21
  %13 = icmp ne ptr %12, null
  br i1 %13, label %15, label %14

14:                                               ; preds = %2
  store i32 1, ptr %7, align 4
  br label %82

15:                                               ; preds = %2
  %16 = load ptr, ptr %6, align 8, !tbaa !21
  %17 = getelementptr inbounds nuw %struct.cli_event, ptr %16, i32 0, i32 3
  %18 = load i16, ptr %17, align 4
  %19 = and i16 %18, 255
  %20 = zext i16 %19 to i32
  %21 = call ptr @evtype(i32 noundef %20)
  store ptr %21, ptr %5, align 8, !tbaa !20
  %22 = load ptr, ptr %6, align 8, !tbaa !21
  %23 = getelementptr inbounds nuw %struct.cli_event, ptr %22, i32 0, i32 3
  %24 = load i16, ptr %23, align 4
  %25 = lshr i16 %24, 8
  %26 = zext i16 %25 to i32
  %27 = icmp eq i32 %26, 1
  br i1 %27, label %28, label %66

28:                                               ; preds = %15
  %29 = load ptr, ptr %6, align 8, !tbaa !21
  %30 = getelementptr inbounds nuw %struct.cli_event, ptr %29, i32 0, i32 3
  %31 = load i16, ptr %30, align 4
  %32 = and i16 %31, 255
  %33 = zext i16 %32 to i32
  %34 = icmp ne i32 %33, 2
  br i1 %34, label %35, label %66

35:                                               ; preds = %28
  call void @llvm.lifetime.start.p0(i64 4, ptr %8) #8
  %36 = load ptr, ptr %6, align 8, !tbaa !21
  %37 = getelementptr inbounds nuw %struct.cli_event, ptr %36, i32 0, i32 0
  %38 = load ptr, ptr %37, align 8, !tbaa !22
  %39 = load ptr, ptr %6, align 8, !tbaa !21
  %40 = getelementptr inbounds nuw %struct.cli_event, ptr %39, i32 0, i32 2
  %41 = load i32, ptr %40, align 8, !tbaa !25
  %42 = load ptr, ptr %5, align 8, !tbaa !20
  call void (ptr, ...) @cli_dbgmsg(ptr noundef @.str.12, ptr noundef %38, i32 noundef %41, ptr noundef %42)
  store i32 0, ptr %8, align 4, !tbaa !3
  br label %43

43:                                               ; preds = %62, %35
  %44 = load i32, ptr %8, align 4, !tbaa !3
  %45 = load ptr, ptr %6, align 8, !tbaa !21
  %46 = getelementptr inbounds nuw %struct.cli_event, ptr %45, i32 0, i32 2
  %47 = load i32, ptr %46, align 8, !tbaa !25
  %48 = icmp ult i32 %44, %47
  br i1 %48, label %49, label %65

49:                                               ; preds = %43
  %50 = load ptr, ptr %6, align 8, !tbaa !21
  %51 = getelementptr inbounds nuw %struct.cli_event, ptr %50, i32 0, i32 3
  %52 = load i16, ptr %51, align 4
  %53 = and i16 %52, 255
  %54 = zext i16 %53 to i32
  %55 = load ptr, ptr %6, align 8, !tbaa !21
  %56 = getelementptr inbounds nuw %struct.cli_event, ptr %55, i32 0, i32 1
  %57 = load ptr, ptr %56, align 8, !tbaa !23
  %58 = load i32, ptr %8, align 4, !tbaa !3
  %59 = zext i32 %58 to i64
  %60 = getelementptr inbounds nuw %union.ev_val, ptr %57, i64 %59
  %61 = load i32, ptr %8, align 4, !tbaa !3
  call void @ev_debug(i32 noundef %54, ptr noundef %60, i32 noundef %61)
  br label %62

62:                                               ; preds = %49
  %63 = load i32, ptr %8, align 4, !tbaa !3
  %64 = add i32 %63, 1
  store i32 %64, ptr %8, align 4, !tbaa !3
  br label %43

65:                                               ; preds = %43
  call void @llvm.lifetime.end.p0(i64 4, ptr %8) #8
  br label %81

66:                                               ; preds = %28, %15
  %67 = load ptr, ptr %6, align 8, !tbaa !21
  %68 = getelementptr inbounds nuw %struct.cli_event, ptr %67, i32 0, i32 0
  %69 = load ptr, ptr %68, align 8, !tbaa !22
  %70 = load ptr, ptr %5, align 8, !tbaa !20
  call void (ptr, ...) @cli_dbgmsg(ptr noundef @.str.13, ptr noundef %69, ptr noundef %70)
  %71 = load ptr, ptr %6, align 8, !tbaa !21
  %72 = getelementptr inbounds nuw %struct.cli_event, ptr %71, i32 0, i32 3
  %73 = load i16, ptr %72, align 4
  %74 = and i16 %73, 255
  %75 = zext i16 %74 to i32
  %76 = load ptr, ptr %6, align 8, !tbaa !21
  %77 = getelementptr inbounds nuw %struct.cli_event, ptr %76, i32 0, i32 1
  %78 = load ptr, ptr %6, align 8, !tbaa !21
  %79 = getelementptr inbounds nuw %struct.cli_event, ptr %78, i32 0, i32 2
  %80 = load i32, ptr %79, align 8, !tbaa !25
  call void @ev_debug(i32 noundef %75, ptr noundef %77, i32 noundef %80)
  br label %81

81:                                               ; preds = %66, %65
  store i32 0, ptr %7, align 4
  br label %82

82:                                               ; preds = %81, %14
  call void @llvm.lifetime.end.p0(i64 8, ptr %6) #8
  call void @llvm.lifetime.end.p0(i64 8, ptr %5) #8
  %83 = load i32, ptr %7, align 4
  switch i32 %83, label %85 [
    i32 0, label %84
    i32 1, label %84
  ]

84:                                               ; preds = %82, %82
  ret void

85:                                               ; preds = %82
  unreachable
}