; Function Attrs: nounwind uwtable
define void @cli_event_debug(ptr noundef %0, i32 noundef %1) local_unnamed_addr #5 {
  %.not.i = icmp eq ptr %0, null
  br i1 %.not.i, label %get_event.exit.thread, label %3

3:                                                ; preds = %2
  %4 = getelementptr inbounds nuw i8, ptr %0, i64 40
  %5 = load i32, ptr %4, align 8, !tbaa !3
  %.not8.i = icmp ult i32 %1, %5
  br i1 %.not8.i, label %get_event.exit, label %6

6:                                                ; preds = %3
  tail call void (ptr, ...) @cli_warnmsg(ptr noundef nonnull @.str.8, ptr noundef nonnull @.str.18) #14
  %7 = getelementptr inbounds nuw i8, ptr %0, i64 28
  %8 = load i16, ptr %7, align 4
  %9 = lshr i16 %8, 8
  %trunc.i.i.i = trunc nuw i16 %9 to i8
  switch i8 %trunc.i.i.i, label %get_event.exit.thread [
    i8 0, label %10
    i8 1, label %15
  ]

10:                                               ; preds = %6
  %11 = getelementptr inbounds nuw i8, ptr %0, i64 16
  store ptr @.str.18, ptr %11, align 8, !tbaa !17
  %12 = getelementptr inbounds nuw i8, ptr %0, i64 24
  %13 = load i32, ptr %12, align 8, !tbaa !18
  %14 = add i32 %13, 1
  store i32 %14, ptr %12, align 8, !tbaa !18
  br label %get_event.exit.thread

15:                                               ; preds = %6
  %16 = getelementptr inbounds nuw i8, ptr %0, i64 24
  %17 = load i32, ptr %16, align 8, !tbaa !18
  %18 = shl i32 %17, 3
  %19 = add i32 %18, 8
  %20 = getelementptr inbounds nuw i8, ptr %0, i64 16
  %21 = load ptr, ptr %20, align 8, !tbaa !17
  %22 = zext i32 %19 to i64
  %23 = tail call ptr @cli_safer_realloc(ptr noundef %21, i64 noundef %22) #14
  %.not.i.i.i.i = icmp eq ptr %23, null
  br i1 %.not.i.i.i.i, label %24, label %32

24:                                               ; preds = %15
  %25 = getelementptr inbounds nuw i8, ptr %0, i64 32
  %26 = load i64, ptr %25, align 8, !tbaa !15
  %27 = add i64 %26, %22
  store i64 %27, ptr %25, align 8, !tbaa !15
  %28 = getelementptr inbounds nuw i8, ptr %0, i64 44
  %29 = load i32, ptr %28, align 4, !tbaa !16
  %30 = add i32 %29, 1
  store i32 %30, ptr %28, align 4, !tbaa !16
  %.not6.i.i.i.i.i = icmp eq i32 %19, 0
  br i1 %.not6.i.i.i.i.i, label %get_event.exit.thread, label %31

31:                                               ; preds = %24
  tail call void (ptr, ...) @cli_errmsg(ptr noundef nonnull @.str.1, i32 noundef %19) #14
  br label %get_event.exit.thread

32:                                               ; preds = %15
  store ptr %23, ptr %20, align 8, !tbaa !17
  %33 = load i32, ptr %16, align 8, !tbaa !18
  %34 = zext i32 %33 to i64
  %35 = getelementptr inbounds nuw %union.ev_val, ptr %23, i64 %34
  store i64 ptrtoint (ptr @.str.18 to i64), ptr %35, align 8, !tbaa !17
  %36 = load i32, ptr %16, align 8, !tbaa !18
  %37 = add i32 %36, 1
  store i32 %37, ptr %16, align 8, !tbaa !18
  br label %get_event.exit.thread

get_event.exit:                                   ; preds = %3
  %38 = load ptr, ptr %0, align 8, !tbaa !13
  %39 = zext i32 %1 to i64
  %40 = getelementptr inbounds nuw %struct.cli_event, ptr %38, i64 %39
  %.not = icmp eq ptr %38, null
  br i1 %.not, label %get_event.exit.thread, label %41

41:                                               ; preds = %get_event.exit
  %42 = getelementptr inbounds nuw i8, ptr %40, i64 20
  %43 = load i16, ptr %42, align 4
  %44 = and i16 %43, 255
  %trunc.i = trunc i16 %43 to i8
  %switch.tableidx = add i8 %trunc.i, -1
  %45 = icmp ult i8 %switch.tableidx, 5
  br i1 %45, label %switch.lookup, label %evtype.exit

switch.lookup:                                    ; preds = %41
  %46 = zext nneg i8 %switch.tableidx to i64
  %switch.gep = getelementptr inbounds nuw [5 x ptr], ptr @switch.table.cli_event_debug, i64 0, i64 %46
  %switch.load = load ptr, ptr %switch.gep, align 8
  br label %evtype.exit

evtype.exit:                                      ; preds = %41, %switch.lookup
  %.0.i22 = phi ptr [ %switch.load, %switch.lookup ], [ @.str.19, %41 ]
  %.mask = and i16 %43, -256
  %47 = icmp ne i16 %.mask, 256
  %.not21 = icmp eq i16 %44, 2
  %or.cond = or i1 %47, %.not21
  %48 = load ptr, ptr %40, align 8, !tbaa !19
  br i1 %or.cond, label %64, label %49

49:                                               ; preds = %evtype.exit
  %50 = getelementptr inbounds nuw i8, ptr %40, i64 16
  %51 = load i32, ptr %50, align 8, !tbaa !18
  tail call void (ptr, ...) @cli_dbgmsg(ptr noundef nonnull @.str.12, ptr noundef %48, i32 noundef %51, ptr noundef nonnull %.0.i22) #14
  %52 = load i32, ptr %50, align 8, !tbaa !18
  %.not26 = icmp eq i32 %52, 0
  br i1 %.not26, label %get_event.exit.thread, label %.lr.ph

.lr.ph:                                           ; preds = %49
  %53 = getelementptr inbounds nuw i8, ptr %40, i64 8
  br label %54

54:                                               ; preds = %.lr.ph, %54
  %indvars.iv = phi i64 [ 0, %.lr.ph ], [ %indvars.iv.next, %54 ]
  %55 = load i16, ptr %42, align 4
  %56 = and i16 %55, 255
  %57 = zext nneg i16 %56 to i32
  %58 = load ptr, ptr %53, align 8, !tbaa !17
  %59 = getelementptr inbounds nuw %union.ev_val, ptr %58, i64 %indvars.iv
  %60 = trunc nuw i64 %indvars.iv to i32
  tail call fastcc void @ev_debug(i32 noundef %57, ptr noundef %59, i32 noundef %60)
  %indvars.iv.next = add nuw nsw i64 %indvars.iv, 1
  %61 = load i32, ptr %50, align 8, !tbaa !18
  %62 = zext i32 %61 to i64
  %63 = icmp samesign ult i64 %indvars.iv.next, %62
  br i1 %63, label %54, label %get_event.exit.thread

64:                                               ; preds = %evtype.exit
  tail call void (ptr, ...) @cli_dbgmsg(ptr noundef nonnull @.str.13, ptr noundef %48, ptr noundef nonnull %.0.i22) #14
  %65 = load i16, ptr %42, align 4
  %66 = and i16 %65, 255
  %67 = zext nneg i16 %66 to i32
  %68 = getelementptr inbounds nuw i8, ptr %40, i64 8
  %69 = getelementptr inbounds nuw i8, ptr %40, i64 16
  %70 = load i32, ptr %69, align 8, !tbaa !18
  tail call fastcc void @ev_debug(i32 noundef %67, ptr noundef nonnull %68, i32 noundef %70)
  br label %get_event.exit.thread

get_event.exit.thread:                            ; preds = %54, %49, %32, %31, %24, %10, %6, %2, %64, %get_event.exit
  ret void
}